target datalayout = "e-m:e-p270:32:32-p271:32:32-p272:64:64-i64:64-i128:128-f80:128-n8:16:32:64-S128"
target triple = "x86_64-pc-linux-gnu"

@_ZN5zxing6qrcode17FormatInformation21BITS_SET_IN_HALF_BYTEE = hidden global [16 x i32] [i32 0, i32 1, i32 1, i32 2, i32 1, i32 2, i32 2, i32 3, i32 1, i32 2, i32 2, i32 3, i32 2, i32 3, i32 3, i32 4], align 16

; Function Attrs: mustprogress nounwind uwtable
define hidden noundef i32 @_ZN5zxing6qrcode17FormatInformation16numBitsDifferingEii(i32 noundef %0, i32 noundef %1) #1 align 2 {
  %3 = alloca i32, align 4
  %4 = alloca i32, align 4
  store i32 %0, ptr %3, align 4, !tbaa !8
  store i32 %1, ptr %4, align 4, !tbaa !8
  %5 = load i32, ptr %4, align 4, !tbaa !8
  %6 = load i32, ptr %3, align 4, !tbaa !8
  %7 = xor i32 %6, %5
  store i32 %7, ptr %3, align 4, !tbaa !8
  %8 = load i32, ptr %3, align 4, !tbaa !8
  %9 = and i32 %8, 15
  %10 = sext i32 %9 to i64
  %11 = getelementptr inbounds [16 x i32], ptr @_ZN5zxing6qrcode17FormatInformation21BITS_SET_IN_HALF_BYTEE, i64 0, i64 %10
  %12 = load i32, ptr %11, align 4, !tbaa !8
  %13 = load i32, ptr %3, align 4, !tbaa !8
  %14 = ashr i32 %13, 4
  %15 = and i32 %14, 15
  %16 = sext i32 %15 to i64
  %17 = getelementptr inbounds [16 x i32], ptr @_ZN5zxing6qrcode17FormatInformation21BITS_SET_IN_HALF_BYTEE, i64 0, i64 %16
  %18 = load i32, ptr %17, align 4, !tbaa !8
  %19 = add nsw i32 %12, %18
  %20 = load i32, ptr %3, align 4, !tbaa !8
  %21 = ashr i32 %20, 8
  %22 = and i32 %21, 15
  %23 = sext i32 %22 to i64
  %24 = getelementptr inbounds [16 x i32], ptr @_ZN5zxing6qrcode17FormatInformation21BITS_SET_IN_HALF_BYTEE, i64 0, i64 %23
  %25 = load i32, ptr %24, align 4, !tbaa !8
  %26 = add nsw i32 %19, %25
  %27 = load i32, ptr %3, align 4, !tbaa !8
  %28 = ashr i32 %27, 12
  %29 = and i32 %28, 15
  %30 = sext i32 %29 to i64
  %31 = getelementptr inbounds [16 x i32], ptr @_ZN5zxing6qrcode17FormatInformation21BITS_SET_IN_HALF_BYTEE, i64 0, i64 %30
  %32 = load i32, ptr %31, align 4, !tbaa !8
  %33 = add nsw i32 %26, %32
  %34 = load i32, ptr %3, align 4, !tbaa !8
  %35 = ashr i32 %34, 16
  %36 = and i32 %35, 15
  %37 = sext i32 %36 to i64
  %38 = getelementptr inbounds [16 x i32], ptr @_ZN5zxing6qrcode17FormatInformation21BITS_SET_IN_HALF_BYTEE, i64 0, i64 %37
  %39 = load i32, ptr %38, align 4, !tbaa !8
  %40 = add nsw i32 %33, %39
  %41 = load i32, ptr %3, align 4, !tbaa !8
  %42 = ashr i32 %41, 20
  %43 = and i32 %42, 15
  %44 = sext i32 %43 to i64
  %45 = getelementptr inbounds [16 x i32], ptr @_ZN5zxing6qrcode17FormatInformation21BITS_SET_IN_HALF_BYTEE, i64 0, i64 %44
  %46 = load i32, ptr %45, align 4, !tbaa !8
  %47 = add nsw i32 %40, %46
  %48 = load i32, ptr %3, align 4, !tbaa !8
  %49 = ashr i32 %48, 24
  %50 = and i32 %49, 15
  %51 = sext i32 %50 to i64
  %52 = getelementptr inbounds [16 x i32], ptr @_ZN5zxing6qrcode17FormatInformation21BITS_SET_IN_HALF_BYTEE, i64 0, i64 %51
  %53 = load i32, ptr %52, align 4, !tbaa !8
  %54 = add nsw i32 %47, %53
  %55 = load i32, ptr %3, align 4, !tbaa !8
  %56 = ashr i32 %55, 28
  %57 = and i32 %56, 15
  %58 = sext i32 %57 to i64
  %59 = getelementptr inbounds [16 x i32], ptr @_ZN5zxing6qrcode17FormatInformation21BITS_SET_IN_HALF_BYTEE, i64 0, i64 %58
  %60 = load i32, ptr %59, align 4, !tbaa !8
  %61 = add nsw i32 %54, %60
  ret i32 %61
}