; Function Attrs: mustprogress nofree norecurse nosync nounwind willreturn memory(read, argmem: none, inaccessiblemem: none) uwtable
define hidden noundef i32 @_ZN5zxing6qrcode17FormatInformation16numBitsDifferingEii(i32 noundef %0, i32 noundef %1) local_unnamed_addr #3 align 2 {
  %3 = xor i32 %1, %0
  %4 = and i32 %3, 15
  %5 = zext nneg i32 %4 to i64
  %6 = getelementptr inbounds nuw [16 x i32], ptr @_ZN5zxing6qrcode17FormatInformation21BITS_SET_IN_HALF_BYTEE, i64 0, i64 %5
  %7 = load i32, ptr %6, align 4, !tbaa !18
  %8 = lshr i32 %3, 4
  %9 = and i32 %8, 15
  %10 = zext nneg i32 %9 to i64
  %11 = getelementptr inbounds nuw [16 x i32], ptr @_ZN5zxing6qrcode17FormatInformation21BITS_SET_IN_HALF_BYTEE, i64 0, i64 %10
  %12 = load i32, ptr %11, align 4, !tbaa !18
  %13 = add nsw i32 %12, %7
  %14 = lshr i32 %3, 8
  %15 = and i32 %14, 15
  %16 = zext nneg i32 %15 to i64
  %17 = getelementptr inbounds nuw [16 x i32], ptr @_ZN5zxing6qrcode17FormatInformation21BITS_SET_IN_HALF_BYTEE, i64 0, i64 %16
  %18 = load i32, ptr %17, align 4, !tbaa !18
  %19 = add nsw i32 %13, %18
  %20 = lshr i32 %3, 12
  %21 = and i32 %20, 15
  %22 = zext nneg i32 %21 to i64
  %23 = getelementptr inbounds nuw [16 x i32], ptr @_ZN5zxing6qrcode17FormatInformation21BITS_SET_IN_HALF_BYTEE, i64 0, i64 %22
  %24 = load i32, ptr %23, align 4, !tbaa !18
  %25 = add nsw i32 %19, %24
  %26 = lshr i32 %3, 16
  %27 = and i32 %26, 15
  %28 = zext nneg i32 %27 to i64
  %29 = getelementptr inbounds nuw [16 x i32], ptr @_ZN5zxing6qrcode17FormatInformation21BITS_SET_IN_HALF_BYTEE, i64 0, i64 %28
  %30 = load i32, ptr %29, align 4, !tbaa !18
  %31 = add nsw i32 %25, %30
  %32 = lshr i32 %3, 20
  %33 = and i32 %32, 15
  %34 = zext nneg i32 %33 to i64
  %35 = getelementptr inbounds nuw [16 x i32], ptr @_ZN5zxing6qrcode17FormatInformation21BITS_SET_IN_HALF_BYTEE, i64 0, i64 %34
  %36 = load i32, ptr %35, align 4, !tbaa !18
  %37 = add nsw i32 %31, %36
  %38 = lshr i32 %3, 24
  %39 = and i32 %38, 15
  %40 = zext nneg i32 %39 to i64
  %41 = getelementptr inbounds nuw [16 x i32], ptr @_ZN5zxing6qrcode17FormatInformation21BITS_SET_IN_HALF_BYTEE, i64 0, i64 %40
  %42 = load i32, ptr %41, align 4, !tbaa !18
  %43 = add nsw i32 %37, %42
  %44 = lshr i32 %3, 28
  %45 = zext nneg i32 %44 to i64
  %46 = getelementptr inbounds nuw [16 x i32], ptr @_ZN5zxing6qrcode17FormatInformation21BITS_SET_IN_HALF_BYTEE, i64 0, i64 %45
  %47 = load i32, ptr %46, align 4, !tbaa !18
  %48 = add nsw i32 %43, %47
  ret i32 %48
}